target datalayout = "e-m:e-p270:32:32-p271:32:32-p272:64:64-i64:64-i128:128-f80:128-n8:16:32:64-S128"
target triple = "x86_64-pc-linux-gnu"

%"class.llvm::StringRef" = type { ptr, i64 }
%class.anon = type { ptr }

; Function Attrs: mustprogress nounwind uwtable
define dso_local void @_ZN4llvm13GlobalDCEPass29ScanTypeCheckedLoadIntrinsicsERNS_6ModuleE(ptr noundef nonnull align 8 dereferenceable(744) %0, ptr noundef nonnull align 8 dereferenceable(857) %1) #1 align 2 {
  %3 = alloca ptr, align 8
  %4 = alloca ptr, align 8
  %5 = alloca ptr, align 8
  %6 = alloca %"class.llvm::StringRef", align 8
  %7 = alloca ptr, align 8
  %8 = alloca %"class.llvm::StringRef", align 8
  %9 = alloca %class.anon, align 8
  store ptr %0, ptr %3, align 8
  store ptr %1, ptr %4, align 8
  %10 = load ptr, ptr %3, align 8
  br label %11

11:                                               ; preds = %2
  br label %12

12:                                               ; preds = %11
  %13 = load ptr, ptr %4, align 8
  %14 = call { ptr, i64 } @_ZN4llvm9Intrinsic7getNameEj(i32 noundef 347)
  %15 = getelementptr inbounds nuw { ptr, i64 }, ptr %6, i32 0, i32 0
  %16 = extractvalue { ptr, i64 } %14, 0
  store ptr %16, ptr %15, align 8
  %17 = getelementptr inbounds nuw { ptr, i64 }, ptr %6, i32 0, i32 1
  %18 = extractvalue { ptr, i64 } %14, 1
  store i64 %18, ptr %17, align 8
  %19 = getelementptr inbounds nuw { ptr, i64 }, ptr %6, i32 0, i32 0
  %20 = load ptr, ptr %19, align 8
  %21 = getelementptr inbounds nuw { ptr, i64 }, ptr %6, i32 0, i32 1
  %22 = load i64, ptr %21, align 8
  %23 = call noundef ptr @_ZNK4llvm6Module11getFunctionENS_9StringRefE(ptr noundef nonnull align 8 dereferenceable(857) %13, ptr %20, i64 %22)
  store ptr %23, ptr %5, align 8
  %24 = load ptr, ptr %4, align 8
  %25 = call { ptr, i64 } @_ZN4llvm9Intrinsic7getNameEj(i32 noundef 348)
  %26 = getelementptr inbounds nuw { ptr, i64 }, ptr %8, i32 0, i32 0
  %27 = extractvalue { ptr, i64 } %25, 0
  store ptr %27, ptr %26, align 8
  %28 = getelementptr inbounds nuw { ptr, i64 }, ptr %8, i32 0, i32 1
  %29 = extractvalue { ptr, i64 } %25, 1
  store i64 %29, ptr %28, align 8
  %30 = getelementptr inbounds nuw { ptr, i64 }, ptr %8, i32 0, i32 0
  %31 = load ptr, ptr %30, align 8
  %32 = getelementptr inbounds nuw { ptr, i64 }, ptr %8, i32 0, i32 1
  %33 = load i64, ptr %32, align 8
  %34 = call noundef ptr @_ZNK4llvm6Module11getFunctionENS_9StringRefE(ptr noundef nonnull align 8 dereferenceable(857) %24, ptr %31, i64 %33)
  store ptr %34, ptr %7, align 8
  %35 = getelementptr inbounds nuw %class.anon, ptr %9, i32 0, i32 0
  store ptr %10, ptr %35, align 8
  %36 = load ptr, ptr %5, align 8
  call void @"_ZZN4llvm13GlobalDCEPass29ScanTypeCheckedLoadIntrinsicsERNS_6ModuleEENK3$_0clEPNS_8FunctionE"(ptr noundef nonnull align 8 dereferenceable(8) %9, ptr noundef %36)
  %37 = load ptr, ptr %7, align 8
  call void @"_ZZN4llvm13GlobalDCEPass29ScanTypeCheckedLoadIntrinsicsERNS_6ModuleEENK3$_0clEPNS_8FunctionE"(ptr noundef nonnull align 8 dereferenceable(8) %9, ptr noundef %37)
  ret void
}