; Function Attrs: mustprogress nounwind uwtable
define dso_local void @_ZN4llvm13GlobalDCEPass29ScanTypeCheckedLoadIntrinsicsERNS_6ModuleE(ptr noundef nonnull align 8 dereferenceable(744) %0, ptr noundef nonnull align 8 dereferenceable(857) %1) local_unnamed_addr #0 align 2 {
  %3 = tail call { ptr, i64 } @_ZN4llvm9Intrinsic7getNameEj(i32 noundef 347) #17
  %4 = extractvalue { ptr, i64 } %3, 0
  %5 = extractvalue { ptr, i64 } %3, 1
  %6 = tail call noundef ptr @_ZNK4llvm6Module11getFunctionENS_9StringRefE(ptr noundef nonnull align 8 dereferenceable(857) %1, ptr %4, i64 %5) #17
  %7 = tail call { ptr, i64 } @_ZN4llvm9Intrinsic7getNameEj(i32 noundef 348) #17
  %8 = extractvalue { ptr, i64 } %7, 0
  %9 = extractvalue { ptr, i64 } %7, 1
  %10 = tail call noundef ptr @_ZNK4llvm6Module11getFunctionENS_9StringRefE(ptr noundef nonnull align 8 dereferenceable(857) %1, ptr %8, i64 %9) #17
  tail call fastcc void @"_ZZN4llvm13GlobalDCEPass29ScanTypeCheckedLoadIntrinsicsERNS_6ModuleEENK3$_0clEPNS_8FunctionE"(ptr nonnull %0, ptr noundef %6)
  tail call fastcc void @"_ZZN4llvm13GlobalDCEPass29ScanTypeCheckedLoadIntrinsicsERNS_6ModuleEENK3$_0clEPNS_8FunctionE"(ptr nonnull %0, ptr noundef %10)
  ret void
}